target datalayout = "e-m:e-p270:32:32-p271:32:32-p272:64:64-i64:64-i128:128-f80:128-n8:16:32:64-S128"
target triple = "x86_64-pc-linux-gnu"

%struct.fstWriterContext = type { ptr, ptr, ptr, ptr, ptr, ptr, ptr, i64, ptr, ptr, ptr, i32, ptr, i32, i32, i32, i8, i64, i64, i32, i32, i64, i64, i32, i32, i32, i64, i32, double, ptr, ptr, i32, i64, i8, i8, i8, i8, i8, i64, i64, i64, i64, i64, i32, ptr, i32, i8, ptr, ptr, ptr, ptr, i32 }

@.str.11 = private unnamed_addr constant [1 x i8] zeroinitializer, align 1
@.str.12 = private unnamed_addr constant [9 x i8] c"%s%c%s%c\00", align 1

; Function Attrs: mustprogress uwtable
define void @fstWriterSetScope(ptr noundef %0, i32 noundef %1, ptr noundef %2, ptr noundef %3) #0 {
  %5 = alloca ptr, align 8
  %6 = alloca i32, align 4
  %7 = alloca ptr, align 8
  %8 = alloca ptr, align 8
  %9 = alloca ptr, align 8
  store ptr %0, ptr %5, align 8, !tbaa !50
  store i32 %1, ptr %6, align 4, !tbaa !123
  store ptr %2, ptr %7, align 8, !tbaa !6
  store ptr %3, ptr %8, align 8, !tbaa !6
  call void @llvm.lifetime.start.p0(i64 8, ptr %9) #15
  %10 = load ptr, ptr %5, align 8, !tbaa !50
  store ptr %10, ptr %9, align 8, !tbaa !13
  %11 = load ptr, ptr %9, align 8, !tbaa !13
  %12 = icmp ne ptr %11, null
  br i1 %12, label %13, label %73

13:                                               ; preds = %4
  %14 = load ptr, ptr %9, align 8, !tbaa !13
  %15 = getelementptr inbounds nuw %struct.fstWriterContext, ptr %14, i32 0, i32 1
  %16 = load ptr, ptr %15, align 8, !tbaa !22
  %17 = call i32 @fputc(i32 noundef 254, ptr noundef %16)
  %18 = load i32, ptr %6, align 4, !tbaa !123
  %19 = icmp sgt i32 %18, 21
  br i1 %19, label %20, label %21

20:                                               ; preds = %13
  store i32 0, ptr %6, align 4, !tbaa !123
  br label %21

21:                                               ; preds = %20, %13
  %22 = load i32, ptr %6, align 4, !tbaa !123
  %23 = load ptr, ptr %9, align 8, !tbaa !13
  %24 = getelementptr inbounds nuw %struct.fstWriterContext, ptr %23, i32 0, i32 1
  %25 = load ptr, ptr %24, align 8, !tbaa !22
  %26 = call i32 @fputc(i32 noundef %22, ptr noundef %25)
  %27 = load ptr, ptr %9, align 8, !tbaa !13
  %28 = getelementptr inbounds nuw %struct.fstWriterContext, ptr %27, i32 0, i32 1
  %29 = load ptr, ptr %28, align 8, !tbaa !22
  %30 = load ptr, ptr %7, align 8, !tbaa !6
  %31 = icmp ne ptr %30, null
  br i1 %31, label %32, label %34

32:                                               ; preds = %21
  %33 = load ptr, ptr %7, align 8, !tbaa !6
  br label %35

34:                                               ; preds = %21
  br label %35

35:                                               ; preds = %34, %32
  %36 = phi ptr [ %33, %32 ], [ @.str.11, %34 ]
  %37 = load ptr, ptr %8, align 8, !tbaa !6
  %38 = icmp ne ptr %37, null
  br i1 %38, label %39, label %41

39:                                               ; preds = %35
  %40 = load ptr, ptr %8, align 8, !tbaa !6
  br label %42

41:                                               ; preds = %35
  br label %42

42:                                               ; preds = %41, %39
  %43 = phi ptr [ %40, %39 ], [ @.str.11, %41 ]
  %44 = call i32 (ptr, ptr, ...) @fprintf(ptr noundef %29, ptr noundef @.str.12, ptr noundef %36, i32 noundef 0, ptr noundef %43, i32 noundef 0) #15
  %45 = load ptr, ptr %7, align 8, !tbaa !6
  %46 = icmp ne ptr %45, null
  br i1 %46, label %47, label %54

47:                                               ; preds = %42
  %48 = load ptr, ptr %7, align 8, !tbaa !6
  %49 = call i64 @strlen(ptr noundef %48) #17
  %50 = load ptr, ptr %9, align 8, !tbaa !13
  %51 = getelementptr inbounds nuw %struct.fstWriterContext, ptr %50, i32 0, i32 7
  %52 = load i64, ptr %51, align 8, !tbaa !69
  %53 = add i64 %52, %49
  store i64 %53, ptr %51, align 8, !tbaa !69
  br label %54

54:                                               ; preds = %47, %42
  %55 = load ptr, ptr %8, align 8, !tbaa !6
  %56 = icmp ne ptr %55, null
  br i1 %56, label %57, label %64

57:                                               ; preds = %54
  %58 = load ptr, ptr %8, align 8, !tbaa !6
  %59 = call i64 @strlen(ptr noundef %58) #17
  %60 = load ptr, ptr %9, align 8, !tbaa !13
  %61 = getelementptr inbounds nuw %struct.fstWriterContext, ptr %60, i32 0, i32 7
  %62 = load i64, ptr %61, align 8, !tbaa !69
  %63 = add i64 %62, %59
  store i64 %63, ptr %61, align 8, !tbaa !69
  br label %64

64:                                               ; preds = %57, %54
  %65 = load ptr, ptr %9, align 8, !tbaa !13
  %66 = getelementptr inbounds nuw %struct.fstWriterContext, ptr %65, i32 0, i32 7
  %67 = load i64, ptr %66, align 8, !tbaa !69
  %68 = add nsw i64 %67, 4
  store i64 %68, ptr %66, align 8, !tbaa !69
  %69 = load ptr, ptr %9, align 8, !tbaa !13
  %70 = getelementptr inbounds nuw %struct.fstWriterContext, ptr %69, i32 0, i32 27
  %71 = load i32, ptr %70, align 8, !tbaa !75
  %72 = add i32 %71, 1
  store i32 %72, ptr %70, align 8, !tbaa !75
  br label %73

73:                                               ; preds = %64, %4
  call void @llvm.lifetime.end.p0(i64 8, ptr %9) #15
  ret void
}