; Function Attrs: mustprogress nofree nounwind uwtable
define void @fstWriterSetScope(ptr noundef captures(address_is_null) %0, i32 noundef %1, ptr noundef %2, ptr noundef %3) local_unnamed_addr #14 {
  %.not = icmp eq ptr %0, null
  br i1 %.not, label %34, label %5

5:                                                ; preds = %4
  %6 = getelementptr inbounds nuw i8, ptr %0, i64 8
  %7 = load ptr, ptr %6, align 8, !tbaa !27
  %8 = tail call i32 @fputc(i32 noundef 254, ptr noundef %7)
  %9 = icmp sgt i32 %1, 21
  %spec.store.select = select i1 %9, i32 0, i32 %1
  %10 = load ptr, ptr %6, align 8, !tbaa !27
  %11 = tail call i32 @fputc(i32 noundef %spec.store.select, ptr noundef %10)
  %12 = load ptr, ptr %6, align 8, !tbaa !27
  %.not20 = icmp eq ptr %2, null
  %13 = select i1 %.not20, ptr @.str.11, ptr %2
  %.not21 = icmp eq ptr %3, null
  %14 = select i1 %.not21, ptr @.str.11, ptr %3
  %15 = tail call i32 (ptr, ptr, ...) @fprintf(ptr noundef %12, ptr noundef nonnull @.str.12, ptr noundef nonnull %13, i32 noundef 0, ptr noundef nonnull %14, i32 noundef 0) #39
  br i1 %.not20, label %21, label %16

16:                                               ; preds = %5
  %17 = tail call i64 @strlen(ptr noundef nonnull dereferenceable(1) %2) #40
  %18 = getelementptr inbounds nuw i8, ptr %0, i64 56
  %19 = load i64, ptr %18, align 8, !tbaa !65
  %20 = add i64 %19, %17
  store i64 %20, ptr %18, align 8, !tbaa !65
  br label %21

21:                                               ; preds = %16, %5
  br i1 %.not21, label %._crit_edge, label %22

._crit_edge:                                      ; preds = %21
  %.phi.trans.insert = getelementptr inbounds nuw i8, ptr %0, i64 56
  %.pre = load i64, ptr %.phi.trans.insert, align 8, !tbaa !65
  br label %27

22:                                               ; preds = %21
  %23 = tail call i64 @strlen(ptr noundef nonnull dereferenceable(1) %3) #40
  %24 = getelementptr inbounds nuw i8, ptr %0, i64 56
  %25 = load i64, ptr %24, align 8, !tbaa !65
  %26 = add i64 %25, %23
  br label %27

27:                                               ; preds = %._crit_edge, %22
  %28 = phi i64 [ %.pre, %._crit_edge ], [ %26, %22 ]
  %29 = getelementptr inbounds nuw i8, ptr %0, i64 56
  %30 = add nsw i64 %28, 4
  store i64 %30, ptr %29, align 8, !tbaa !65
  %31 = getelementptr inbounds nuw i8, ptr %0, i64 184
  %32 = load i32, ptr %31, align 8, !tbaa !69
  %33 = add i32 %32, 1
  store i32 %33, ptr %31, align 8, !tbaa !69
  br label %34

34:                                               ; preds = %27, %4
  ret void
}